target datalayout = "e-m:e-p270:32:32-p271:32:32-p272:64:64-i64:64-i128:128-f80:128-n8:16:32:64-S128"
target triple = "x86_64-pc-linux-gnu"

%struct.expert_field = type { i32, i32 }

@hf_uftp_destlist = internal global i32 0, align 4
@hf_uftp_dest = internal global i32 0, align 4
@hf_uftp_doneconf = internal global i32 0, align 4
@hf_uftp_doneconf_func = internal global i32 0, align 4
@hf_uftp_doneconf_hlen = internal global i32 0, align 4
@hf_uftp_doneconf_reserved = internal global i32 0, align 4
@ett_uftp_doneconf = internal global i32 0, align 4
@ett_uftp_destlist = internal global i32 0, align 4
@ei_uftp_length_invalid = internal global %struct.expert_field zeroinitializer, align 4
@.str.416 = private unnamed_addr constant [19 x i8] c"Invalid length: %d\00", align 1
@.str.417 = private unnamed_addr constant [36 x i8] c"Invalid length, len = %d, hlen = %d\00", align 1
@.str.418 = private unnamed_addr constant [14 x i8] c"%d bytes (%d)\00", align 1

; Function Attrs: null_pointer_is_valid sspstrong uwtable
define internal void @dissect_uftp_doneconf(ptr noundef %0, ptr noundef %1, ptr noundef %2) #0 {
  %4 = alloca ptr, align 8
  %5 = alloca ptr, align 8
  %6 = alloca ptr, align 8
  %7 = alloca ptr, align 8
  %8 = alloca ptr, align 8
  %9 = alloca ptr, align 8
  %10 = alloca ptr, align 8
  %11 = alloca i32, align 4
  %12 = alloca i32, align 4
  %13 = alloca i16, align 2
  %14 = alloca i16, align 2
  %15 = alloca i32, align 4
  store ptr %0, ptr %4, align 8
  store ptr %1, ptr %5, align 8
  store ptr %2, ptr %6, align 8
  call void @llvm.lifetime.start.p0(i64 8, ptr %7) #6
  store ptr null, ptr %7, align 8
  call void @llvm.lifetime.start.p0(i64 8, ptr %8) #6
  store ptr null, ptr %8, align 8
  call void @llvm.lifetime.start.p0(i64 8, ptr %9) #6
  store ptr null, ptr %9, align 8
  call void @llvm.lifetime.start.p0(i64 8, ptr %10) #6
  store ptr null, ptr %10, align 8
  call void @llvm.lifetime.start.p0(i64 4, ptr %11) #6
  store i32 0, ptr %11, align 4
  call void @llvm.lifetime.start.p0(i64 4, ptr %12) #6
  call void @llvm.lifetime.start.p0(i64 2, ptr %13) #6
  call void @llvm.lifetime.start.p0(i64 2, ptr %14) #6
  %16 = load ptr, ptr %4, align 8
  %17 = call i32 @tvb_reported_length(ptr noundef %16)
  %18 = icmp ult i32 %17, 4
  br i1 %18, label %19, label %27

19:                                               ; preds = %3
  %20 = load ptr, ptr %6, align 8
  %21 = load ptr, ptr %5, align 8
  %22 = load ptr, ptr %4, align 8
  %23 = load i32, ptr %11, align 4
  %24 = load ptr, ptr %4, align 8
  %25 = call i32 @tvb_reported_length(ptr noundef %24)
  %26 = call ptr (ptr, ptr, ptr, ptr, i32, i32, ptr, ...) @proto_tree_add_expert_format(ptr noundef %20, ptr noundef %21, ptr noundef @ei_uftp_length_invalid, ptr noundef %22, i32 noundef %23, i32 noundef -1, ptr noundef @.str.416, i32 noundef %25)
  store i32 1, ptr %15, align 4
  br label %121

27:                                               ; preds = %3
  %28 = load ptr, ptr %4, align 8
  %29 = call zeroext i8 @tvb_get_uint8(ptr noundef %28, i32 noundef 1)
  %30 = zext i8 %29 to i32
  %31 = mul i32 %30, 4
  store i32 %31, ptr %12, align 4
  %32 = load ptr, ptr %4, align 8
  %33 = call i32 @tvb_reported_length(ptr noundef %32)
  %34 = load i32, ptr %12, align 4
  %35 = icmp slt i32 %33, %34
  br i1 %35, label %39, label %36

36:                                               ; preds = %27
  %37 = load i32, ptr %12, align 4
  %38 = icmp slt i32 %37, 4
  br i1 %38, label %39, label %48

39:                                               ; preds = %36, %27
  %40 = load ptr, ptr %6, align 8
  %41 = load ptr, ptr %5, align 8
  %42 = load ptr, ptr %4, align 8
  %43 = load i32, ptr %11, align 4
  %44 = load ptr, ptr %4, align 8
  %45 = call i32 @tvb_reported_length(ptr noundef %44)
  %46 = load i32, ptr %12, align 4
  %47 = call ptr (ptr, ptr, ptr, ptr, i32, i32, ptr, ...) @proto_tree_add_expert_format(ptr noundef %40, ptr noundef %41, ptr noundef @ei_uftp_length_invalid, ptr noundef %42, i32 noundef %43, i32 noundef -1, ptr noundef @.str.417, i32 noundef %45, i32 noundef %46)
  store i32 1, ptr %15, align 4
  br label %121

48:                                               ; preds = %36
  %49 = load ptr, ptr %6, align 8
  %50 = load i32, ptr @hf_uftp_doneconf, align 4
  %51 = load ptr, ptr %4, align 8
  %52 = load i32, ptr %11, align 4
  %53 = call ptr @proto_tree_add_item(ptr noundef %49, i32 noundef %50, ptr noundef %51, i32 noundef %52, i32 noundef -1, i32 noundef 0)
  store ptr %53, ptr %7, align 8
  %54 = load ptr, ptr %7, align 8
  %55 = load i32, ptr @ett_uftp_doneconf, align 4
  %56 = call ptr @proto_item_add_subtree(ptr noundef %54, i32 noundef %55)
  store ptr %56, ptr %9, align 8
  %57 = load ptr, ptr %9, align 8
  %58 = load i32, ptr @hf_uftp_doneconf_func, align 4
  %59 = load ptr, ptr %4, align 8
  %60 = load i32, ptr %11, align 4
  %61 = call ptr @proto_tree_add_item(ptr noundef %57, i32 noundef %58, ptr noundef %59, i32 noundef %60, i32 noundef 1, i32 noundef 0)
  %62 = load i32, ptr %11, align 4
  %63 = add i32 %62, 1
  store i32 %63, ptr %11, align 4
  %64 = load ptr, ptr %9, align 8
  %65 = load i32, ptr @hf_uftp_doneconf_hlen, align 4
  %66 = load ptr, ptr %4, align 8
  %67 = load i32, ptr %11, align 4
  %68 = load i32, ptr %12, align 4
  %69 = load i32, ptr %12, align 4
  %70 = load i32, ptr %12, align 4
  %71 = sdiv i32 %70, 4
  %72 = call ptr (ptr, i32, ptr, i32, i32, i32, ptr, ...) @proto_tree_add_uint_format_value(ptr noundef %64, i32 noundef %65, ptr noundef %66, i32 noundef %67, i32 noundef 1, i32 noundef %68, ptr noundef @.str.418, i32 noundef %69, i32 noundef %71)
  %73 = load i32, ptr %11, align 4
  %74 = add i32 %73, 1
  store i32 %74, ptr %11, align 4
  %75 = load ptr, ptr %9, align 8
  %76 = load i32, ptr @hf_uftp_doneconf_reserved, align 4
  %77 = load ptr, ptr %4, align 8
  %78 = load i32, ptr %11, align 4
  %79 = call ptr @proto_tree_add_item(ptr noundef %75, i32 noundef %76, ptr noundef %77, i32 noundef %78, i32 noundef 2, i32 noundef 0)
  %80 = load ptr, ptr %4, align 8
  %81 = call i32 @tvb_reported_length(ptr noundef %80)
  %82 = load i32, ptr %12, align 4
  %83 = sub i32 %81, %82
  %84 = udiv i32 %83, 4
  %85 = trunc i32 %84 to i16
  store i16 %85, ptr %13, align 2
  %86 = load i32, ptr %12, align 4
  store i32 %86, ptr %11, align 4
  %87 = load i16, ptr %13, align 2
  %88 = zext i16 %87 to i32
  %89 = icmp sgt i32 %88, 0
  br i1 %89, label %90, label %102

90:                                               ; preds = %48
  %91 = load ptr, ptr %9, align 8
  %92 = load i32, ptr @hf_uftp_destlist, align 4
  %93 = load ptr, ptr %4, align 8
  %94 = load i32, ptr %11, align 4
  %95 = load i16, ptr %13, align 2
  %96 = zext i16 %95 to i32
  %97 = mul i32 %96, 4
  %98 = call ptr @proto_tree_add_item(ptr noundef %91, i32 noundef %92, ptr noundef %93, i32 noundef %94, i32 noundef %97, i32 noundef 0)
  store ptr %98, ptr %8, align 8
  %99 = load ptr, ptr %8, align 8
  %100 = load i32, ptr @ett_uftp_destlist, align 4
  %101 = call ptr @proto_item_add_subtree(ptr noundef %99, i32 noundef %100)
  store ptr %101, ptr %10, align 8
  br label %102

102:                                              ; preds = %90, %48
  store i16 0, ptr %14, align 2
  br label %103

103:                                              ; preds = %117, %102
  %104 = load i16, ptr %14, align 2
  %105 = zext i16 %104 to i32
  %106 = load i16, ptr %13, align 2
  %107 = zext i16 %106 to i32
  %108 = icmp slt i32 %105, %107
  br i1 %108, label %109, label %120

109:                                              ; preds = %103
  %110 = load ptr, ptr %10, align 8
  %111 = load i32, ptr @hf_uftp_dest, align 4
  %112 = load ptr, ptr %4, align 8
  %113 = load i32, ptr %11, align 4
  %114 = call ptr @proto_tree_add_item(ptr noundef %110, i32 noundef %111, ptr noundef %112, i32 noundef %113, i32 noundef 4, i32 noundef 0)
  %115 = load i32, ptr %11, align 4
  %116 = add i32 %115, 4
  store i32 %116, ptr %11, align 4
  br label %117

117:                                              ; preds = %109
  %118 = load i16, ptr %14, align 2
  %119 = add i16 %118, 1
  store i16 %119, ptr %14, align 2
  br label %103, !llvm.loop !20

120:                                              ; preds = %103
  store i32 0, ptr %15, align 4
  br label %121

121:                                              ; preds = %120, %39, %19
  call void @llvm.lifetime.end.p0(i64 2, ptr %14) #6
  call void @llvm.lifetime.end.p0(i64 2, ptr %13) #6
  call void @llvm.lifetime.end.p0(i64 4, ptr %12) #6
  call void @llvm.lifetime.end.p0(i64 4, ptr %11) #6
  call void @llvm.lifetime.end.p0(i64 8, ptr %10) #6
  call void @llvm.lifetime.end.p0(i64 8, ptr %9) #6
  call void @llvm.lifetime.end.p0(i64 8, ptr %8) #6
  call void @llvm.lifetime.end.p0(i64 8, ptr %7) #6
  %122 = load i32, ptr %15, align 4
  switch i32 %122, label %124 [
    i32 0, label %123
    i32 1, label %123
  ]

123:                                              ; preds = %121, %121
  ret void

124:                                              ; preds = %121
  unreachable
}